target datalayout = "e-m:e-p270:32:32-p271:32:32-p272:64:64-i64:64-i128:128-f80:128-n8:16:32:64-S128"
target triple = "x86_64-pc-linux-gnu"

%class.LogTagSet = type { ptr, i64, [5 x i32], [4 x i8], %class.LogOutputList, %class.LogDecorators, ptr }
%class.LogOutputList = type <{ [6 x ptr], i32, [4 x i8] }>
%class.LogDecorators = type { i32 }

@_ZN16SafepointTracing14_max_sync_timeE = hidden global i64 0, align 8
@_ZN16SafepointTracing14_max_vmop_timeE = hidden global i64 0, align 8
@_ZN16SafepointTracing9_op_countE = hidden global [80 x i64] zeroinitializer, align 16
@.str.24 = private unnamed_addr constant [11 x i8] c"%-28s%10lu\00", align 1
@.str.25 = private unnamed_addr constant [26 x i8] c"Maximum sync time  %ld ns\00", align 1
@.str.26 = private unnamed_addr constant [65 x i8] c"Maximum vm operation time (except for Exit VM operation)  %ld ns\00", align 1
@_ZN16LogTagSetMappingILN6LogTag4typeE132ELS1_146ELS1_0ELS1_0ELS1_0ELS1_0EE7_tagsetE = linkonce_odr hidden global %class.LogTagSet zeroinitializer, comdat, align 8
@_ZN12VM_Operation6_namesE = external global [0 x ptr], align 8

; Function Attrs: mustprogress nounwind uwtable
define linkonce_odr hidden noundef zeroext i1 @_ZNK13LogOutputList8is_levelEN8LogLevel4typeE(ptr noundef nonnull align 8 dereferenceable(52) %0, i32 noundef %1) #1 comdat align 2 {
  %3 = alloca ptr, align 8
  %4 = alloca i32, align 4
  store ptr %0, ptr %3, align 8
  store i32 %1, ptr %4, align 4
  %5 = load ptr, ptr %3, align 8
  %6 = getelementptr inbounds %class.LogOutputList, ptr %5, i32 0, i32 0
  %7 = load i32, ptr %4, align 4
  %8 = zext i32 %7 to i64
  %9 = getelementptr inbounds [6 x ptr], ptr %6, i64 0, i64 %8
  %10 = load volatile ptr, ptr %9, align 8
  %11 = icmp ne ptr %10, null
  ret i1 %11
}

; Function Attrs: mustprogress nounwind uwtable
define linkonce_odr hidden noundef zeroext i1 @_ZNK9LogTagSet8is_levelEN8LogLevel4typeE(ptr noundef nonnull align 8 dereferenceable(112) %0, i32 noundef %1) #1 comdat align 2 {
  %3 = alloca ptr, align 8
  %4 = alloca i32, align 4
  store ptr %0, ptr %3, align 8
  store i32 %1, ptr %4, align 4
  %5 = load ptr, ptr %3, align 8
  %6 = getelementptr inbounds %class.LogTagSet, ptr %5, i32 0, i32 4
  %7 = load i32, ptr %4, align 4
  %8 = call noundef zeroext i1 @_ZNK13LogOutputList8is_levelEN8LogLevel4typeE(ptr noundef nonnull align 8 dereferenceable(52) %6, i32 noundef %7)
  ret i1 %8
}

; Function Attrs: mustprogress nounwind uwtable
define linkonce_odr hidden noundef nonnull align 8 dereferenceable(112) ptr @_ZN16LogTagSetMappingILN6LogTag4typeE132ELS1_146ELS1_0ELS1_0ELS1_0ELS1_0EE6tagsetEv() #1 comdat align 2 {
  ret ptr @_ZN16LogTagSetMappingILN6LogTag4typeE132ELS1_146ELS1_0ELS1_0ELS1_0ELS1_0EE7_tagsetE
}

; Function Attrs: mustprogress nounwind uwtable
define linkonce_odr hidden noundef ptr @_ZN12VM_Operation4nameEi(i32 noundef %0) #1 comdat align 2 {
  %2 = alloca i32, align 4
  store i32 %0, ptr %2, align 4
  %3 = load i32, ptr %2, align 4
  %4 = sext i32 %3 to i64
  %5 = getelementptr inbounds [0 x ptr], ptr @_ZN12VM_Operation6_namesE, i64 0, i64 %4
  %6 = load ptr, ptr %5, align 8
  ret ptr %6
}

; Function Attrs: mustprogress nounwind uwtable
define linkonce_odr hidden noundef zeroext i1 @_ZN7LogImplILN6LogTag4typeE132ELS1_146ELS1_0ELS1_0ELS1_0ELS1_0EE8is_levelEN8LogLevel4typeE(i32 noundef %0) #1 comdat align 2 {
  %2 = alloca i32, align 4
  store i32 %0, ptr %2, align 4
  %3 = call noundef nonnull align 8 dereferenceable(112) ptr @_ZN16LogTagSetMappingILN6LogTag4typeE132ELS1_146ELS1_0ELS1_0ELS1_0ELS1_0EE6tagsetEv()
  %4 = load i32, ptr %2, align 4
  %5 = call noundef zeroext i1 @_ZNK9LogTagSet8is_levelEN8LogLevel4typeE(ptr noundef nonnull align 8 dereferenceable(112) %3, i32 noundef %4)
  ret i1 %5
}

; Function Attrs: mustprogress nounwind uwtable
define hidden void @_ZN16SafepointTracing19statistics_exit_logEv() #1 align 2 {
  %1 = alloca i32, align 4
  %2 = call noundef zeroext i1 @_ZN7LogImplILN6LogTag4typeE132ELS1_146ELS1_0ELS1_0ELS1_0ELS1_0EE8is_levelEN8LogLevel4typeE(i32 noundef 3)
  br i1 %2, label %4, label %3

3:                                                ; preds = %0
  br label %39

4:                                                ; preds = %0
  store i32 0, ptr %1, align 4
  br label %5

5:                                                ; preds = %26, %4
  %6 = load i32, ptr %1, align 4
  %7 = icmp slt i32 %6, 80
  br i1 %7, label %8, label %29

8:                                                ; preds = %5
  %9 = load i32, ptr %1, align 4
  %10 = sext i32 %9 to i64
  %11 = getelementptr inbounds [80 x i64], ptr @_ZN16SafepointTracing9_op_countE, i64 0, i64 %10
  %12 = load i64, ptr %11, align 8
  %13 = icmp ne i64 %12, 0
  br i1 %13, label %14, label %25

14:                                               ; preds = %8
  %15 = call noundef zeroext i1 @_ZN7LogImplILN6LogTag4typeE132ELS1_146ELS1_0ELS1_0ELS1_0ELS1_0EE8is_levelEN8LogLevel4typeE(i32 noundef 3)
  br i1 %15, label %17, label %16

16:                                               ; preds = %14
  br label %24

17:                                               ; preds = %14
  %18 = load i32, ptr %1, align 4
  %19 = call noundef ptr @_ZN12VM_Operation4nameEi(i32 noundef %18)
  %20 = load i32, ptr %1, align 4
  %21 = sext i32 %20 to i64
  %22 = getelementptr inbounds [80 x i64], ptr @_ZN16SafepointTracing9_op_countE, i64 0, i64 %21
  %23 = load i64, ptr %22, align 8
  call void (ptr, ...) @_ZN7LogImplILN6LogTag4typeE132ELS1_146ELS1_0ELS1_0ELS1_0ELS1_0EE5writeILN8LogLevel4typeE3EEEvPKcz(ptr noundef @.str.24, ptr noundef %19, i64 noundef %23)
  br label %24

24:                                               ; preds = %17, %16
  br label %25

25:                                               ; preds = %24, %8
  br label %26

26:                                               ; preds = %25
  %27 = load i32, ptr %1, align 4
  %28 = add nsw i32 %27, 1
  store i32 %28, ptr %1, align 4
  br label %5, !llvm.loop !15

29:                                               ; preds = %5
  %30 = call noundef zeroext i1 @_ZN7LogImplILN6LogTag4typeE132ELS1_146ELS1_0ELS1_0ELS1_0ELS1_0EE8is_levelEN8LogLevel4typeE(i32 noundef 3)
  br i1 %30, label %32, label %31

31:                                               ; preds = %29
  br label %34

32:                                               ; preds = %29
  %33 = load i64, ptr @_ZN16SafepointTracing14_max_sync_timeE, align 8
  call void (ptr, ...) @_ZN7LogImplILN6LogTag4typeE132ELS1_146ELS1_0ELS1_0ELS1_0ELS1_0EE5writeILN8LogLevel4typeE3EEEvPKcz(ptr noundef @.str.25, i64 noundef %33)
  br label %34

34:                                               ; preds = %32, %31
  %35 = call noundef zeroext i1 @_ZN7LogImplILN6LogTag4typeE132ELS1_146ELS1_0ELS1_0ELS1_0ELS1_0EE8is_levelEN8LogLevel4typeE(i32 noundef 3)
  br i1 %35, label %37, label %36

36:                                               ; preds = %34
  br label %39

37:                                               ; preds = %34
  %38 = load i64, ptr @_ZN16SafepointTracing14_max_vmop_timeE, align 8
  call void (ptr, ...) @_ZN7LogImplILN6LogTag4typeE132ELS1_146ELS1_0ELS1_0ELS1_0ELS1_0EE5writeILN8LogLevel4typeE3EEEvPKcz(ptr noundef @.str.26, i64 noundef %38)
  br label %39

39:                                               ; preds = %37, %36, %3
  ret void
}