; Function Attrs: mustprogress nounwind uwtable
define hidden void @_ZN16SafepointTracing19statistics_exit_logEv() local_unnamed_addr #2 align 2 {
  %1 = load volatile ptr, ptr getelementptr inbounds (i8, ptr @_ZN16LogTagSetMappingILN6LogTag4typeE132ELS1_146ELS1_0ELS1_0ELS1_0ELS1_0EE7_tagsetE, i64 64), align 8
  %.not5 = icmp eq ptr %1, null
  br i1 %.not5, label %18, label %.preheader

.preheader:                                       ; preds = %0, %9
  %indvars.iv = phi i64 [ %indvars.iv.next, %9 ], [ 0, %0 ]
  %2 = getelementptr inbounds [80 x i64], ptr @_ZN16SafepointTracing9_op_countE, i64 0, i64 %indvars.iv
  %3 = load i64, ptr %2, align 8
  %.not = icmp eq i64 %3, 0
  br i1 %.not, label %9, label %4

4:                                                ; preds = %.preheader
  %5 = load volatile ptr, ptr getelementptr inbounds (i8, ptr @_ZN16LogTagSetMappingILN6LogTag4typeE132ELS1_146ELS1_0ELS1_0ELS1_0ELS1_0EE7_tagsetE, i64 64), align 8
  %.not8 = icmp eq ptr %5, null
  br i1 %.not8, label %9, label %6

6:                                                ; preds = %4
  %7 = getelementptr inbounds [0 x ptr], ptr @_ZN12VM_Operation6_namesE, i64 0, i64 %indvars.iv
  %8 = load ptr, ptr %7, align 8
  tail call void (ptr, ...) @_ZN7LogImplILN6LogTag4typeE132ELS1_146ELS1_0ELS1_0ELS1_0ELS1_0EE5writeILN8LogLevel4typeE3EEEvPKcz(ptr noundef nonnull @.str.24, ptr noundef %8, i64 noundef %3)
  br label %9

9:                                                ; preds = %.preheader, %4, %6
  %indvars.iv.next = add nuw nsw i64 %indvars.iv, 1
  %exitcond.not = icmp eq i64 %indvars.iv.next, 80
  br i1 %exitcond.not, label %10, label %.preheader, !llvm.loop !26

10:                                               ; preds = %9
  %11 = load volatile ptr, ptr getelementptr inbounds (i8, ptr @_ZN16LogTagSetMappingILN6LogTag4typeE132ELS1_146ELS1_0ELS1_0ELS1_0ELS1_0EE7_tagsetE, i64 64), align 8
  %.not6 = icmp eq ptr %11, null
  br i1 %.not6, label %14, label %12

12:                                               ; preds = %10
  %13 = load i64, ptr @_ZN16SafepointTracing14_max_sync_timeE, align 8
  tail call void (ptr, ...) @_ZN7LogImplILN6LogTag4typeE132ELS1_146ELS1_0ELS1_0ELS1_0ELS1_0EE5writeILN8LogLevel4typeE3EEEvPKcz(ptr noundef nonnull @.str.25, i64 noundef %13)
  br label %14

14:                                               ; preds = %10, %12
  %15 = load volatile ptr, ptr getelementptr inbounds (i8, ptr @_ZN16LogTagSetMappingILN6LogTag4typeE132ELS1_146ELS1_0ELS1_0ELS1_0ELS1_0EE7_tagsetE, i64 64), align 8
  %.not7 = icmp eq ptr %15, null
  br i1 %.not7, label %18, label %16

16:                                               ; preds = %14
  %17 = load i64, ptr @_ZN16SafepointTracing14_max_vmop_timeE, align 8
  tail call void (ptr, ...) @_ZN7LogImplILN6LogTag4typeE132ELS1_146ELS1_0ELS1_0ELS1_0ELS1_0EE5writeILN8LogLevel4typeE3EEEvPKcz(ptr noundef nonnull @.str.26, i64 noundef %17)
  br label %18

18:                                               ; preds = %14, %0, %16
  ret void
}